; Function Attrs: nounwind uwtable
define void @dt_control_button_released(double noundef %0, double noundef %1, i32 noundef %2, i32 noundef %3) local_unnamed_addr #0 {
  %5 = load ptr, ptr getelementptr inbounds nuw (i8, ptr @darktable, i64 88), align 8, !tbaa !107
  %6 = getelementptr inbounds nuw i8, ptr %5, i64 896
  store i32 0, ptr %6, align 8, !tbaa !103
  %7 = getelementptr inbounds nuw i8, ptr %5, i64 900
  store i32 0, ptr %7, align 4, !tbaa !104
  %8 = load ptr, ptr getelementptr inbounds nuw (i8, ptr @darktable, i64 80), align 8, !tbaa !6
  %9 = tail call i32 @dt_view_manager_button_released(ptr noundef %8, double noundef %0, double noundef %1, i32 noundef %2, i32 noundef %3) #13
  ret void
}